(lp0
Vn't
p1
aVnot
p2
aVare
p3
aVnew
p4
aVmore
p5
aVhave
p6
aVhas
p7
aVwelle
p8
aVsays
p9
aVjust
p10
aVwas
p11
aVout
p12
aVdoes
p13
aVtoo
p14
aVmost
p15
aVgood
p16
aVmuch
p17
aVmake
p18
aVnow
p19
aVfirst
p20
aVeven
p21
aVbeen
p22
aVvery
p23
aVget
p24
aVonly
p25
aVhere
p26
aVbig
p27
aVmakes
p28
aVsee
p29
aV're
p30
aVlittle
p31
aVback
p32
aVbest
p33
aVdown
p34
aVnever
p35
aVstill
p36
aVdeutsche
p37
aVreally
p38
aVown
p39
aVtake
p40
aVenough
p41
aVlive
p42
aVbad
p43
aVmade
p44
aVgoing
p45
aVbeing
p46
aVother
p47
aVgets
p48
aVobama
p49
aVfunny
p50
aVneed
p51
aVtech
p52
aVmany
p53
aVbetter
p54
aVoff
p55
aVwell
p56
aVthink
p57
aVwant
p58
aVdid
p59
aVtakes
p60
aV've
p61
aVgreat
p62
aVwere
p63
aVreal
p64
aVhad
p65
aVraises
p66
aVnext
p67
aVlong
p68
aVvideo
p69
aVfree
p70
aVlast
p71
aVcoming
p72
aVknow
p73
aVsay
p74
aVmobile
p75
aValso
p76
aVever
p77
aVgetty
p78
aVright
p79
aVfull
p80
aVfar
p81
aVwatch
p82
aVfind
p83
aVamerican
p84
aVless
p85
aVcnn
p86
aVsocial
p87
aVyet
p88
aVwants
p89
aVold
p90
aVuber
p91
aValmost
p92
aVcome
p93
aVkeep
p94
aVagain
p95
aVgerman
p96
aVgoes
p97
aVhuman
p98
aVdigital
p99
aVfew
p100
aVhelp
p101
aVsmart
p102
aVcomes
p103
aVhigh
p104
aVgot
p105
aVrather
p106
aVapp
p107
aVaway
p108
aVblack
p109
aVhard
p110
aVthen
p111
aVseen
p112
aVgive
p113
aVlatest
p114
aVquite
p115
aVopen
p116
aVseems
p117
aVmicrosoft
p118
aVwhite
p119
aVhit
p120
aVtop
p121
aVglobal
p122
aVmaking
p123
aVsecond
p124
aVsame
p125
aVoften
p126
aVyoung
p127
aVonline
p128
aVformer
p129
aVlabour
p130
aVvirtual
p131
aVput
p132
aVlook
p133
aVwrong
p134
aVfeel
p135
aVgives
p136
aVwin
p137
aVcalls
p138
aVpolitical
p139
aVinteresting
p140
aVwatching
p141
aVsyrian
p142
aVleast
p143
aVsuch
p144
aVset
p145
aVbecome
p146
aVfrench
p147
aVu.s.
p148
aVoriginal
p149
aVactually
p150
aVbritish
p151
aVsouth
p152
aVtells
p153
aVultimately
p154
aVspecial
p155
aVdead
p156
aVlet
p157
aValjazeera
p158
aVentertaining
p159
aVgetting
p160
aVromantic
p161
aVtrue
p162
aVturns
p163
aVtrying
p164
aVchinese
p165
aViowa
p166
aVonce
p167
aVlaunches
p168
aVkilled
p169
aVnearly
p170
aVfound
p171
aVgoogle
p172
aVusing
p173
aVeuropean
p174
aVlooks
p175
aVwork
p176
aVtogether
p177
aVshows
p178
aVprobably
p179
aVstop
p180
aVthere
p181
aVlooking
p182
aVhillary
p183
aVdone
p184
aVleave
p185
aVpretty
p186
aVnorth
p187
aVseem
p188
aVshow
p189
aVnational
p190
aValways
p191
aVted
p192
aVshort
p193
aVbring
p194
aVstrong
p195
aVmilitary
p196
aVsmall
p197
aVmeet
p198
aVpossible
p199
aVsuper
p200
aVpay
p201
aVchina
p202
aVtold
p203
aVemotional
p204
aVandroid
p205
aVused
p206
aVsaid
p207
aVbuild
p208
aVforeign
p209
aVsometimes
p210
aVfinally
p211
aVuse
p212
aVsimply
p213
aVfinal
p214
aVhear
p215
aVlikely
p216
aVtaking
p217
aVbuy
p218
aVleft
p219
aVinstead
p220
aVwhole
p221
aVfresh
p222
aVahead
p223
aVdifferent
p224
aVneeds
p225
aVcinematic
p226
aVlove
p227
aVclose
p228
aVbelieve
p229
aVturn
p230
aVread
p231
aVbecomes
p232
aVdaily
p233
aVimportant
p234
aVfaces
p235
aVmoving
p236
aVtube
p237
aVrussian
p238
aVlost
p239
aVpersonal
p240
aValready
p241
aVfacebook
p242
aVpublic
p243
aVgop
p244
aVchange
p245
aVlaunch
p246
aVsure
p247
aVmajor
p248
aVcall
p249
aVworst
p250
aVsafe
p251
aVgeneral
p252
aVserious
p253
aVspeak
p254
aVeasy
p255
aVcreate
p256
aVislamic
p257
aVdemocratic
p258
aVfollowing
p259
aVcompelling
p260
aVpredictable
p261
aVsilly
p262
aVdoing
p263
aVclear
p264
aVtell
p265
aVsoon
p266
aVsave
p267
aVadds
p268
aVdonald
p269
aVoffers
p270
aVrare
p271
aVvisual
p272
aVplay
p273
aVrun
p274
aVcompletely
p275
aVcertainly
p276
aVearly
p277
aVworks
p278
aVend
p279
aVelse
p280
aVfascinating
p281
aVworking
p282
aVslow
p283
aVpresidential
p284
aVred
p285
aVcare
p286
aVthird
p287
aVcut
p288
aVlike
p289
aVfollow
p290
aVdavid
p291
aVobama\u2019s
p292
aVsharp
p293
aVcomic
p294
aVover
p295
aVlets
p296
aVsweet
p297
aVfbi
p298
aVpowerful
p299
aVleaves
p300
aVtalking
p301
aVtrump
p302
aVdifficult
p303
aVhuge
p304
aVrecent
p305
aVfamiliar
p306
aVlow
p307
aVnet
p308
aVending
p309
aVespecially
p310
aVfight
p311
aVfeels
p312
aVable
p313
aVkey
p314
aVgiving
p315
aVgiven
p316
aVnarrative
p317
aVanti-
p318
aVindia
p319
aVfine
p320
aVenjoy
p321
aVlegal
p322
aVoffer
p323
aVprime
p324
aVenjoyable
p325
aVuses
p326
aVrunning
p327
aVchief
p328
aVbiggest
p329
aVbreaking
p330
aVlead
p331
aVwins
p332
aVtry
p333
aVperfect
p334
aVworth
p335
aVsyria
p336
aVmissing
p337
aVmodern
p338
aVworse
p339
aVdark
p340
aVends
p341
aVcruz
p342
aVremains
p343
aVbegins
p344
aVfalls
p345
aVhappy
p346
aVface
p347
aVmostly
p348
aVstart
p349
aVexactly
p350
aVhits
p351
aVstarts
p352
aVinternational
p353
aVabsolutely
p354
aVobvious
p355
aVexpect
p356
aVfinds
p357
aVcalled
p358
aVbrings
p359
aVmiss
p360
aVmean
p361
aVthought
p362
aVfuture
p363
aVsurprisingly
p364
aVgreek
p365
aVsolid
p366
aVbeautiful
p367
aVseeing
p368
aVdull
p369
aVfast
p370
aVgone
p371
aVhaving
p372
aVdiscuss
p373
aVconservative
p374
aVready
p375
aVstay
p376
aVamazon
p377
aVadd
p378
aVsupreme
p379
aVkill
p380
aVstreaming
p381
aVhold
p382
aVdirected
p383
aVbeautifully
p384
aVnuclear
p385
aVforced
p386
aVtaken
p387
aVtalk
p388
aVengaging
p389
aVloses
p390
aVsad
p391
aVimpossible
p392
aVtruly
p393
aVlacks
p394
aVfurther
p395
aVacting
p396
aVop-ed
p397
aVreach
p398
aVlisten
p399
aVamusing
p400
aVrich
p401
aVsingle
p402
aVindian
p403
aVillegal
p404
aVkorea
p405
aVwarns
p406
aVlondon
p407
aVdramatic
p408
aVcommon
p409
aVflat
p410
aVsan
p411
aVago
p412
aVled
p413
aVintelligent
p414
aVputs
p415
aVtwitter
p416
aVarrested
p417
aVclassic
p418
aVpaid
p419
aVjoin
p420
aVrubio
p421
aVknows
p422
aVeurope
p423
aVhilarious
p424
aVavoid
p425
aVamerica
p426
aVcentral
p427
aVannual
p428
aVsecret
p429
aVprivate
p430
aVseeks
p431
aVfails
p432
aVdeeply
p433
aVsimple
p434
aVprimary
p435
aVcomplex
p436
aVseveral
p437
aVguilty
p438
aVfederal
p439
aVstand
p440
aVlonger
p441
aVsupport
p442
aValone
p443
aVunveils
p444
aVtough
p445
aVcold
p446
aVask
p447
aVmanages
p448
aVmassive
p449
aVopens
p450
aVgreen
p451
aVhelps
p452
aVfemale
p453
aVbuys
p454
aVnice
p455
aVunited
p456
aVkeeps
p457
aVwest
p458
aVmissed
p459
aVdeadly
p460
aVhonest
p461
aVoverall
p462
aVasks
p463
aVgrowing
p464
aVunderstand
p465
aVclever
p466
aVlands
p467
aVabout
p468
aVreleased
p469
aVoccasionally
p470
aVadded
p471
aVneeded
p472
aVplanned
p473
aVstart-up
p474
aVmove
p475
aVmigrant
p476
aVbreak
p477
aVcreates
p478
aVeconomic
p479
aVdeep
p480
aVsaudi
p481
aVeasily
p482
aVparticularly
p483
aVcivil
p484
aVrepublican
p485
aVperhaps
p486
aVlosing
p487
aVplays
p488
aVbased
p489
aVwritten
p490
aVtouching
p491
aVplaying
p492
aVconfirms
p493
aVentire
p494
aVexpected
p495
aVpro
p496
aVwild
p497
aVproves
p498
aVimagine
p499
aVclinton
p500
aVheld
p501
aVintriguing
p502
aVdumb
p503
aVpsychological
p504
aVlose
p505
aVamazing
p506
aVmaybe
p507
aVmiddle
p508
aVdeliver
p509
aVawful
p510
aVlight
p511
aVvisually
p512
aVpast
p513
aVweb
p514
aVcrunch
p515
aVgermany
p516
aVquirky
p517
aVentirely
p518
aVthinking
p519
aVpoor
p520
aVwent
p521
aVgrow
p522
aVwinning
p523
aVsolar
p524
aVcyber
p525
aVblog
p526
aVelectric
p527
aVlinked
p528
aVpretentious
p529
aVcreative
p530
aVremember
p531
aVisraeli
p532
aVrevealed
p533
aVmoral
p534
aVsubject
p535
aVraise
p536
aVfun
p537
aVotherwise
p538
aVquickly
p539
aVquiet
p540
aVboring
p541
aVthinks
p542
aVcontinue
p543
aVhappen
p544
aVuniversal
p545
aVvote
p546
aVartificial
p547
aVsexual
p548
aVexcellent
p549
aVprovides
p550
aVexplains
p551
aVhacked
p552
aVmemorable
p553
aVrival
p554
aVnetflix
p555
aVex-
p556
aVscary
p557
aVgun
p558
aVspy
p559
aVbuilding
p560
aVtries
p561
aVmichael
p562
aVstrange
p563
aVsamsung
p564
aVjapanese
p565
aVugly
p566
aVshot
p567
aVsatisfying
p568
aVshooting
p569
aVlater
p570
aVlocal
p571
aVbarely
p572
aVfairly
p573
aVsaw
p574
aVcertain
p575
aVstraight
p576
aVcontinues
p577
aVit\u2019s
p578
aVbecoming
p579
aVwelcome
p580
aVterrible
p581
aVincluding
p582
aVextremely
p583
aVbeat
p584
aVhappened
p585
aValibaba
p586
aVcreating
p587
aVpro-
p588
aVhot
p589
aVeffective
p590
aVinternet
p591
aVsell
p592
aVturkish
p593
aVupdate
p594
aVrarely
p595
aVjanuary
p596
aVheavy
p597
aVwonderful
p598
aVban
p599
aVdie
p600
aVafrican
p601
aVstupid
p602
aVkilling
p603
aVleaked
p604
aVgiant
p605
aVhate
p606
aVparis
p607
aVultimate
p608
aVtook
p609
aVweak
p610
aVcheap
p611
aVsaying
p612
aVasked
p613
aVambitious
p614
aVagree
p615
aVteen
p616
aVacted
p617
aVsend
p618
aVofficial
p619
aVcreated
p620
aVclearly
p621
aVasking
p622
aVcontrived
p623
aVperfectly
p624
aVfall
p625
aVcharming
p626
aVannounces
p627
aVbenghazi
p628
aVblue
p629
aVremarkable
p630
aVexclusive
p631
aVjoins
p632
aVturkey
p633
aVdefends
p634
aVfinancial
p635
aVfair
p636
aVipo
p637
aVseriously
p638
aVconsider
p639
aVappealing
p640
aVcontroversial
p641
aVhighly
p642
aVphoto
p643
aVappears
p644
aVthoughtful
p645
aVwindows
p646
aVsomewhat
p647
aVtesting
p648
aVdesigned
p649
aVsurprising
p650
aVforward
p651
aVholds
p652
aVhappens
p653
aVshortly
p654
aVcheck
p655
aVfaster
p656
aVcool
p657
aVporn
p658
aVlearn
p659
aVcaptures
p660
aVdue
p661
aVfighting
p662
aVtired
p663
aVgaming
p664
aVfeeling
p665
aVturned
p666
aVcarolina
p667
aVcomplete
p668
aVlarge
p669
aVfailed
p670
aVinvolved
p671
aVallow
p672
aVgenuine
p673
aVterrific
p674
aVpaul
p675
aVwon
p676
aVanimated
p677
aVdefinitely
p678
aVfelt
p679
aVmerely
p680
aVfly
p681
aVcrazy
p682
aVblock
p683
aVunlock
p684
aVspend
p685
aVsets
p686
aVhowever
p687
aVcultural
p688
aVaccused
p689
aVlargest
p690
aVpass
p691
aVgorgeous
p692
aVprove
p693
aVinspired
p694
aVusual
p695
aVfake
p696
aVwarm
p697
aVdeal
p698
aVsci-fi
p699
aVfilled
p700
aVnsa
p701
aVfebruary
p702
aVcalling
p703
aVtedious
p704
aVimpressive
p705
aVreveals
p706
aVlate
p707
aVchanging
p708
aVbigger
p709
aVwarning
p710
aVleaving
p711
aVbbc
p712
aVsuccessful
p713
aVcame
p714
aVliberal
p715
aVbrilliant
p716
aVangry
p717
aVshut
p718
aVmeans
p719
aVemotionally
p720
aVexpand
p721
aVprovide
p722
aVearlier
p723
aVhistorical
p724
aVsensitive
p725
aVnintendo
p726
aVspeaking
p727
aVforget
p728
aVdem
p729
aVplease
p730
aVhacking
p731
aVspent
p732
aVitalian
p733
aValive
p734
aVdangerous
p735
aVthoroughly
p736
aVapart
p737
aVallows
p738
aVsold
p739
aVacquires
p740
aVcloses
p741
aVunfortunately
p742
aVplayed
p743
aVprevious
p744
aVscreen
p745
aVdon\u2019t
p746
aVthreatens
p747
aVvirtually
p748
aVthin
p749
aVdelivers
p750
aVrefugee
p751
aVindeed
p752
aVfully
p753
aVpopular
p754
aVmedical
p755
aVlovely
p756
aVpotential
p757
aVunexpected
p758
aVsharing
p759
aVsound
p760
aVkasich
p761
aVbuilt
p762
aVsignificant
p763
aVcloud
p764
aVunlikely
p765
aVchanged
p766
aVwanted
p767
aVprotect
p768
aVleads
p769
aVstartup
p770
aVaims
p771
aVwaiting
p772
aVstunning
p773
aVexpands
p774
aVfix
p775
aVchild
p776
aVslightly
p777
aVpush
p778
aVcurrent
p779
aVnatural
p780
aVtracking
p781
aVdeserves
p782
aVconcerned
p783
aVfalse
p784
aVtotal
p785
aVevil
p786
aVsuspected
p787
aVearnest
p788
aVengrossing
p789
aVforgotten
p790
aVryan
p791
aVcommercial
p792
aVattack
p793
aVken
p794
aVturning
p795
aVdies
p796
aVsilicon
p797
aVcarry
p798
aVraising
p799
aVremain
p800
aVseeking
p801
aVsupposed
p802
aVutterly
p803
aVagenda
p804
aVreleases
p805
aVhardly
p806
aVinterested
p807
aVdisrupt
p808
aVrefuses
p809
aVreaches
p810
aVfear
p811
aVavailable
p812
aVdecent
p813
aVbrought
p814
aVfail
p815
aVodd
p816
aVkorean
p817
aVsouthern
p818
aViran
p819
aVterrorist
p820
aVboost
p821
aVlacking
p822
aVsmall-cap
p823
aVcritical
p824
aVtackle
p825
aVaugmented
p826
aVreport
p827
aVaustralian
p828
aVradical
p829
aVleading
p830
aVsit
p831
aVbringing
p832
aVaround
p833
aVflawed
p834
aVemail
p835
aVruns
p836
aVextra
p837
aVheard
p838
aVstart-ups
p839
aVexciting
p840
aVsustain
p841
aVreportedly
p842
aVstarted
p843
aVyahoo
p844
aVmain
p845
aVswiss
p846
aVbadly
p847
aVurban
p848
aVprovocative
p849
aVpick
p850
aVfinding
p851
aVrising
p852
aVchristian
p853
aVpasses
p854
aVstands
p855
aVsuggests
p856
aVeasier
p857
aVrussia
p858
aVworried
p859
aVkeeping
p860
aVdelightful
p861
aVinstagram
p862
aViraq
p863
aVpays
p864
aVsupporting
p865
aVtalented
p866
aVces2016
p867
aVobviously
p868
aVseek
p869
aVwebsite
p870
aVawkward
p871
aVplans
p872
aVself-driving
p873
aVdomestic
p874
aVsoft
p875
aVnhs
p876
aVgreatest
p877
aVweird
p878
aVking
p879
aVjunior
p880
aVbright
p881
aVreported
p882
aVwish
p883
aVuneven
p884
aVdrive
p885
aVdating
p886
aVnowhere
p887
aValleged
p888
aVrobotic
p889
aVwarned
p890
aVvoting
p891
aVsubtle
p892
aVobamacare
p893
aVappeal
p894
aVtragic
p895
aVtouch
p896
aVempty
p897
aVolder
p898
aVmessaging
p899
aVtelling
p900
aVnecessary
p901
aVforce
p902
aVcolorful
p903
aVtotally
p904
aVsitting
p905
aVensemble
p906
aVsteven
p907
aVunfunny
p908
aVslight
p909
aVrise
p910
aVwestern
p911
aVarmed
p912
aVspeaks
p913
aVlibya
p914
aVkills
p915
aVbush
p916
aVcorporate
p917
aVpossibly
p918
aVshadow
p919
aVaffecting
p920
aVoculus
p921
aVpulls
p922
aVrises
p923
aVukip
p924
aVunsettling
p925
aVstylish
p926
aVpainful
p927
aVirish
p928
aVinvolving
p929
aVindependent
p930
aVmusical
p931
aVtest
p932
aVibm
p933
aVcaught
p934
aVcharged
p935
aVwatchable
p936
aVreligious
p937
aVdecide
p938
aVfocused
p939
aVconnected
p940
aVequally
p941
aVeat
p942
aVoffensive
p943
aVtiny
p944
aVwait
p945
aVliving
p946
aVsincere
p947
aVlargely
p948
aVbroken
p949
aVmixed
p950
aVafrica
p951
aVparticular
p952
aVextraordinary
p953
aVgay
p954
aVapple\u2019s
p955
aVfrank
p956
aVlaugh
p957
aVsucceeds
p958
aVcoming-of-age
p959
aVmildly
p960
aVquick
p961
aVmelodramatic
p962
aVinvest
p963
aVisrael
p964
aVgeneric
p965
aVdouble
p966
aVtraditional
p967
aVapps
p968
aVincredibly
p969
aVworked
p970
aVraised
p971
aVsign
p972
aVridiculous
p973
aVaside
p974
aVaverage
p975
aVforgettable
p976
aVsenate
p977
aVconsiderable
p978
aVrobot
p979
aVarrest
p980
aVdocumentary
p981
aVpalestinian
p982
aVbombing
p983
aVsomewhere
p984
aVold-fashioned
p985
aVhope
p986
aVdrop
p987
aVstriking
p988
aVoffering
p989
aVexposed
p990
aVconventional
p991
aVrobert
p992
aVselling
p993
aVshowing
p994
aVeric
p995
aVasian
p996
aVrecommend
p997
aVwarn
p998
aVdeeper
p999
aVsuicide
p1000
aVgenuinely
p1001
aVshake
p1002
aVcontemporary
p1003
aVeventually
p1004
aVfacing
p1005
aVnasa
p1006
aVstarting
p1007
aVputting
p1008
aVbernie
p1009
aVextreme
p1010
aVapparently
p1011
aVtwice
p1012
aVimprove
p1013
aVcatch
p1014
aVspotify
p1015
aVreveal
p1016
aVal-
p1017
aVknown
p1018
aVwall
p1019
aVenglish
p1020
aVfit
p1021
aVwitty
p1022
aValong
p1023
aVcomplicated
p1024
aVknew
p1025
aViranian
p1026
aVscottish
p1027
aVdepressing
p1028
aVgentle
p1029
aVsends
p1030
aVformulaic
p1031
aVtypical
p1032
aVflying
p1033
aVmarco
p1034
aVdelivered
p1035
aVwi-
p1036
aVdesperate
p1037
aVhistoric
p1038
aVsees
p1039
aVjailed
p1040
aVdied
p1041
aVsuspect
p1042
aVpure
p1043
aVwonder
p1044
aVreading
p1045
aVsophisticated
p1046
aVquietly
p1047
aVsleep
p1048
aVdisturbing
p1049
aVfilmed
p1050
aVmultiple
p1051
aVsenior
p1052
aVsentimental
p1053
aVbecame
p1054
aVinclude
p1055
aVapply
p1056
aVspying
p1057
aVinventive
p1058
aVreplace
p1059
aVspiritual
p1060
aVreduce
p1061
aVdetermined
p1062
aVtechnical
p1063
aVessentially
p1064
aVlaunched
p1065
aVunique
p1066
aVstrangely
p1067
aVmuslim
p1068
aVusually
p1069
aVliked
p1070
aVgrand
p1071
aVstar
p1072
aVmet
p1073
aVdry
p1074
aVlazy
p1075
aVlies
p1076
aVaccording
p1077
aVunusual
p1078
aVdriving
p1079
aVcutting
p1080
aVannounced
p1081
aVloved
p1082
aVmatch
p1083
aVdirect
p1084
aVshoot
p1085
aVinsightful
p1086
aVtim
p1087
aVbizarre
p1088
aVwalk
p1089
aVfalling
p1090
aVenergetic
p1091
aVfeaturing
p1092
aVpull
p1093
aVdetailed
p1094
aVintended
p1095
aVdhnie
p1096
aVtargeted
p1097
aVcrafted
p1098
aVpainfully
p1099
aVtesla
p1100
aVbegin
p1101
aVlearning
p1102
aVconstitutional
p1103
aVtried
p1104
aVclean
p1105
aVnorthern
p1106
aVlived
p1107
aVwell-acted
p1108
aVuser
p1109
aVnokia
p1110
aVaccuses
p1111
aVagrees
p1112
aVhighest
p1113
aVprotest
p1114
aVstolen
p1115
aVfifa
p1116
aVloud
p1117
aVgrows
p1118
aVsuperficial
p1119
aVwilling
p1120
aVroutine
p1121
aVplain
p1122
aVchris
p1123
aVexpects
p1124
aVgave
p1125
aVrealistic
p1126
aVpowered
p1127
aVscores
p1128
aVoutrageous
p1129
aVstorytelling
p1130
aVdisappointing
p1131
aVrally
p1132
aVsteve
p1133
aVgripping
p1134
aVcloser
p1135
aVeast
p1136
aVpulled
p1137
aVpicks
p1138
aVheavy-handed
p1139
aVblocking
p1140
aVstandard
p1141
aVrejects
p1142
aVtarget
p1143
aVrefreshingly
p1144
aVpromises
p1145
aVanonymous
p1146
aVblame
p1147
aVfinish
p1148
aVderivative
p1149
aVvulnerable
p1150
aVutc
p1151
aVcontrol
p1152
aVcute
p1153
aVbroad
p1154
aVdecided
p1155
aVpotentially
p1156
aVgenerally
p1157
aVhappening
p1158
aVconsidering
p1159
aVraw
p1160
aVrelatively
p1161
aVcriminal
p1162
aVimaginative
p1163
aVsoutheast
p1164
aVbelievable
p1165
aVremarkably
p1166
aVemerge
p1167
aVfourth
p1168
aVrecalls
p1169
aVegyptian
p1170
aVpleasant
p1171
aVdeveloped
p1172
aVthrows
p1173
aVworthwhile
p1174
aVhelping
p1175
aVukraine
p1176
aVchoose
p1177
aVlord
p1178
aVhidden
p1179
aVrepresents
p1180
aVcelebrates
p1181
aVon-
p1182
aVsimplistic
p1183
aVfundraising
p1184
aVbuying
p1185
aVwatched
p1186
aVjoined
p1187
aVrevealing
p1188
aVmisses
p1189
aVartistic
p1190
aVdemands
p1191
aVresign
p1192
aVstronger
p1193
aVnegative
p1194
aVjohn
p1195
aVnasty
p1196
aVarab
p1197
aVconfusing
p1198
aVminor
p1199
aVprofessional
p1200
aVviral
p1201
aVthrow
p1202
aVloose
p1203
aVhelped
p1204
aVfamous
p1205
aVordered
p1206
aVgrab
p1207
aVhorrible
p1208
aVupdated
p1209
aVdamned
p1210
aVform
p1211
aVbuilds
p1212
aVpad
p1213
aVconnect
p1214
aVwildly
p1215
aVlame
p1216
aVabsorbing
p1217
aVworthy
p1218
aVendorse
p1219
aVsaturday
p1220
aVrepublicans
p1221
aVannoying
p1222
aVpakistan
p1223
aVviolent
p1224
aVchallenging
p1225
aVfriday
p1226
aVaged
p1227
aVignore
p1228
aVanywhere
p1229
aVafraid
p1230
aVrefreshing
p1231
aVnecessarily
p1232
aVresponsible
p1233
aVsettle
p1234
aVegypt
p1235
aVbanned
p1236
aVstanding
p1237
aVproduced
p1238
aVenjoyed
p1239
aVreturn
p1240
aVcommitted
p1241
aVkurdish
p1242
aVdrops
p1243
aVslowly
p1244
aVdirectorial
p1245
aVcontent
p1246
aVhollywood
p1247
aVdeftly
p1248
aVuna
p1249
aVdestroy
p1250
aVsomehow
p1251
aVskip
p1252
aVdealing
p1253
aVafghanistan
p1254
aVsuspended
p1255
aVsimilar
p1256
aVgrabs
p1257
aVbeginning
p1258
aVgates
p1259
aVautonomous
p1260
aVnamed
p1261
aVeffectively
p1262
aVdefend
p1263
aVaccessible
p1264
aVpoorly
p1265
aVcharging
p1266
aVresist
p1267
aVsells
p1268
aVdelicate
p1269
aVoddly
p1270
aVteach
p1271
aVlying
p1272
aVinvestigate
p1273
aVsued
p1274
aVrecord
p1275
aVresponds
p1276
aVpresent
p1277
aVfaraday
p1278
aVsick
p1279
aVregional
p1280
aVtravel
p1281
aVnicely
p1282
aVprevent
p1283
aVhack
p1284
aVaccomplished
p1285
aVtory
p1286
aVmodest
p1287
aVact
p1288
aVmindless
p1289
aVcaused
p1290
aVbrutal
p1291
aVmesmerizing
p1292
aVshocking
p1293
aVfunnier
p1294
aVaustralia
p1295
aVexplosive
p1296
aVthought-provoking
p1297
aVdreary
p1298
aVsoar
p1299
aVholding
p1300
aVconvincing
p1301
aVpaced
p1302
aVrepetitive
p1303
aVcost
p1304
aVappear
p1305
aVgraphic
p1306
aVpoetic
p1307
aVvaluable
p1308
aVmanipulative
p1309
aVinvesting
p1310
aVpassed
p1311
aVtrapped
p1312
aVrequired
p1313
aVproduce
p1314
aVart
p1315
aVquit
p1316
aVfrequently
p1317
aVpoignant
p1318
aVstealing
p1319
aVexplain
p1320
aVbasic
p1321
aVunicorn
p1322
aVvisit
p1323
aVcapable
p1324
aVpromising
p1325
aVextended
p1326
aVserves
p1327
aVserved
p1328
aVoverly
p1329
aVbacked
p1330
aVfavorite
p1331
aVindia\u2019s
p1332
aVlimited
p1333
aVfrankly
p1334
aVself-indulgent
p1335
aVconfident
p1336
aVhead
p1337
aVconstructed
p1338
aVsloppy
p1339
aVdiscussing
p1340
aVpaying
p1341
aVfocus
p1342
aVsustainable
p1343
aVdemand
p1344
aVhigher
p1345
aVintense
p1346
aVjoining
p1347
aVsmarter
p1348
aVdebate
p1349
aVcarries
p1350
aVurges
p1351
aVprize
p1352
aVadmirable
p1353
aVtyranny
p1354
aVsplit
p1355
aVlays
p1356
aVroll
p1357
aVspanish
p1358
aVallen
p1359
aVwanting
p1360
aVriveting
p1361
aVpolitically
p1362
aVliterary
p1363
aVauthentic
p1364
aVfund
p1365
aVhoping
p1366
aVviewing
p1367
aVland
p1368
aVexhilarating
p1369
aVpacked
p1370
aVaudio
p1371
aVliterally
p1372
aVwasted
p1373
aVattacked
p1374
aVbrown
p1375
aVdiscover
p1376
aVwonderfully
p1377
aVelected
p1378
aVworry
p1379
aVspectacular
p1380
aVmoves
p1381
aVlearned
p1382
aVaimed
p1383
aVceo
p1384
aVthreaten
p1385
aVlives
p1386
aVmanage
p1387
aVfront
p1388
aVcapture
p1389
aVdrone
p1390
aVsquare
p1391
aVfantastic
p1392
aVsurvive
p1393
aVovercome
p1394
aVcrucial
p1395
aVfailing
p1396
aVgove
p1397
aVtrack
p1398
aVbold
p1399
aVunpleasant
p1400
aVfunniest
p1401
aVlyft
p1402
aVcomedic
p1403
aVpal
p1404
aVcynical
p1405
aVletting
p1406
aVbored
p1407
aVirritating
p1408
aVtap
p1409
aVfilmmaking
p1410
aVgear
p1411
aVloves
p1412
aVequal
p1413
aVexecutive
p1414
aVprofound
p1415
aVactual
p1416
aVhearing
p1417
aVtom
p1418
aVdevastating
p1419
aVcatholic
p1420
aVproposed
p1421
aVproposes
p1422
aVstuck
p1423
aVstops
p1424
aVblocked
p1425
aVdeserve
p1426
aVten
p1427
aVarrives
p1428
aVlower
p1429
aVmainstream
p1430
aVparliamentary
p1431
aVvital
p1432
aVshallow
p1433
aVlooked
p1434
aVplanning
p1435
aVbought
p1436
aVreports
p1437
aVgolden
p1438
aVscalia
p1439
aVencrypted
p1440
aVremembering
p1441
aVhackneyed
p1442
aVhumorous
p1443
aVinside
p1444
aVallowed
p1445
aVyear-
p1446
aVfmr
p1447
aVracial
p1448
aVlively
p1449
aVmexican
p1450
aVmagic
p1451
aValert
p1452
aVjewish
p1453
aVtimely
p1454
aVconsistently
p1455
aVrelease
p1456
aVsurely
p1457
aVso-called
p1458
aVentertain
p1459
aVdazzling
p1460
aVordinary
p1461
aVchristie
p1462
aVadmits
p1463
aVn.h.
p1464
aVsteal
p1465
aVblames
p1466
aVkept
p1467
aVmysterious
p1468
aVisil
p1469
aVbasically
p1470
aVsilent
p1471
aVendorses
p1472
aVcontains
p1473
aVsmartphone
p1474
aVfined
p1475
aVsubstantial
p1476
aVthrowing
p1477
aVfirst-time
p1478
aVpositive
p1479
aVbeijing
p1480
aVmad
p1481
aVproviding
p1482
aVanyway
p1483
aVhopeful
p1484
aVendless
p1485
aVprecious
p1486
aVincreasingly
p1487
aVreaching
p1488
aVbeats
p1489
aVemerges
p1490
aVnavy
p1491
aVwearing
p1492
aVachieves
p1493
aVclaims
p1494
aVwinds
p1495
aVintellectual
p1496
aVsappy
p1497
aVclaim
p1498
aVdeclares
p1499
aVreal-life
p1500
aVwake
p1501
aVremote
p1502
aVpregnant
p1503
aVmental
p1504
aVtiresome
p1505
aVchicago
p1506
aVdraws
p1507
aVreminds
p1508
aVsnow
p1509
aVthough
p1510
aVadding
p1511
aVfigure
p1512
aVsuccessfully
p1513
aVchristmas
p1514
aVremoved
p1515
aVinvests
p1516
aVcautionary
p1517
aVcast
p1518
aVe32015
p1519
aVcharge
p1520
aVendearing
p1521
aVwell-made
p1522
aVcredible
p1523
aVsexy
p1524
aVsir
p1525
aVsuperior
p1526
aVutter
p1527
aVjeremy
p1528
aVmitt
p1529
aVruling
p1530
aVincredible
p1531
aVelegant
p1532
aVlow-key
p1533
aVgritty
p1534
aVhong
p1535
aVfox
p1536
aVconstantly
p1537
aVrolling
p1538
aVmediocre
p1539
aVbelieves
p1540
aVawesome
p1541
aVunveiled
p1542
aVhiring
p1543
aVamnesty
p1544
aVprinted
p1545
aVcongressional
p1546
aVoctober
p1547
aVcongress
p1548
aVnovember
p1549
aVbiden
p1550
aVregister
p1551
aVdominic
p1552
aVfintech
p1553
aVantitrust
p1554
aVengage
p1555
aVpopcorn
p1556
aVchallenge
p1557
aVrealize
p1558
aVdiverting
p1559
aVslowing
p1560
aVedward
p1561
aVreasonably
p1562
aVlousy
p1563
aVspread
p1564
aVxbox
p1565
aVborn
p1566
aVplayful
p1567
aVb-movie
p1568
aVdying
p1569
aVchina\u2019s
p1570
aVtext
p1571
aVseemingly
p1572
aVstarring
p1573
aVincrease
p1574
aVdeveloping
p1575
aVdevelop
p1576
aVdelayed
p1577
aVmoved
p1578
aVdesperately
p1579
aVstopped
p1580
aVneil
p1581
aVhires
p1582
aVhaunting
p1583
aVbarack
p1584
aVmarch
p1585
aVride
p1586
aVben
p1587
aVjulian
p1588
aVharder
p1589
aVbefore
p1590
aVmind
p1591
aVbrazil
p1592
aVvows
p1593
aVtargeting
p1594
aVchilling
p1595
aVunnecessary
p1596
aVfill
p1597
aVvividly
p1598
aVsuffer
p1599
aVstruggling
p1600
aVpathetic
p1601
aVludicrous
p1602
aVfollows
p1603
aVgoogle\u2019s
p1604
aVslams
p1605
aVprepared
p1606
aVfatal
p1607
aVsink
p1608
aVmention
p1609
aVinspiring
p1610
aVgreece
p1611
aVclimate
p1612
aVdestroyed
p1613
aVphilosophical
p1614
aVon-demand
p1615
aVwear
p1616
aVsetting
p1617
aVswedish
p1618
aVclumsy
p1619
aVrequire
p1620
aVnaked
p1621
aVnest
p1622
aVrose
p1623
aVsue
p1624
aVwon\u2019t
p1625
aVwrote
p1626
aVsucceed
p1627
aVunlimited
p1628
aVnick
p1629
aVexplore
p1630
aVhonestly
p1631
aVtaliban
p1632
aVurged
p1633
aVpolished
p1634
aVassured
p1635
aVhungary
p1636
aVeastern
p1637
aVinnocent
p1638
aVknowing
p1639
aVlaunching
p1640
aVexist
p1641
aVover-the-top
p1642
aVunderstanding
p1643
aVaddress
p1644
aVtidal
p1645
aVwondering
p1646
aVapparent
p1647
aVvalued
p1648
aVsaving
p1649
aVcomputing
p1650
aVwalking
p1651
aVspare
p1652
aVbubble
p1653
aVorwellian
p1654
aVmorgan
p1655
aVplan
p1656
aVcover
p1657
aVpreparing
p1658
aVprogressive
p1659
aVbacking
p1660
aVcurious
p1661
aVchat
p1662
aVprobe
p1663
aVdelivering
p1664
aVrealized
p1665
aVatmosphere
p1666
aVrough
p1667
aVgreater
p1668
aVcompete
p1669
aVrural
p1670
aVcasual
p1671
aVmiserable
p1672
aVconfirmed
p1673
aVdenies
p1674
aVphysical
p1675
aVhalf
p1676
aVdirectly
p1677
aVforever
p1678
aVdiscovered
p1679
aVtackling
p1680
aVruled
p1681
aVpitch-
p1682
aVfrustrating
p1683
aVfallen
p1684
aVbanal
p1685
aVterribly
p1686
aVamerica\u2019s
p1687
aVanymore
p1688
aVurgent
p1689
aVbelgian
p1690
aVreleasing
p1691
aVfierce
p1692
aVaccurate
p1693
aVpresents
p1694
aVsorry
p1695
aVvast
p1696
aVfable
p1697
aVtaught
p1698
aVu.n.
p1699
aVstudy
p1700
aVlanding
p1701
aVmanaged
p1702
aVpolice
p1703
aVdutch
p1704
aVeveryday
p1705
aVdisappointed
p1706
aVgrim
p1707
aVsearch
p1708
aVcarefully
p1709
aVeither
p1710
aVremembered
p1711
aVclosing
p1712
aVsadly
p1713
aVlikable
p1714
aVchaotic
p1715
aVproper
p1716
aVadolescent
p1717
aVsurreal
p1718
aVsuspenseful
p1719
aVhide
p1720
aVenter
p1721
aVwriting
p1722
aVinspire
p1723
aVescape
p1724
aVbrief
p1725
aVfeel-good
p1726
aVsuspend
p1727
aVgeorge
p1728
aVexploring
p1729
aVcaptured
p1730
aVnissan
p1731
aVstrictly
p1732
aVmike
p1733
aVtasty
p1734
aVoverwrought
p1735
aVeccentric
p1736
aVrisky
p1737
aVvivid
p1738
aVbacks
p1739
aVsmaller
p1740
aVlarger
p1741
aVfed
p1742
aVdysfunctional
p1743
aVvisceral
p1744
aVbrilliantly
p1745
aVpreposterous
p1746
aVleap
p1747
aVfired
p1748
aVhitting
p1749
aVdropping
p1750
aVuncertain
p1751
aVfeature
p1752
aVenormous
p1753
aVbitter
p1754
aVpredictably
p1755
aVvying
p1756
aVlift
p1757
aVsteps
p1758
aVstays
p1759
aVtear
p1760
aVintroducing
p1761
aVprinting
p1762
aVunintentional
p1763
aVspot
p1764
aVburied
p1765
aVengaged
p1766
aVshuts
p1767
aVpop
p1768
aVhunting
p1769
aVstart-
p1770
aVtested
p1771
aVaccept
p1772
aVimmediate
p1773
aVunderstands
p1774
aVcause
p1775
aVseize
p1776
aVmonthly
p1777
aVconvicted
p1778
aVadmire
p1779
aVreceive
p1780
aVkelly
p1781
aVwearable
p1782
aVquest
p1783
aVbroadband
p1784
aVappropriate
p1785
aVcia
p1786
aVdriverless
p1787
aVdelay
p1788
aVdirects
p1789
aVviewed
p1790
aVnewest
p1791
aVcrack
p1792
aVsarah
p1793
aVappreciate
p1794
aVnigerian
p1795
aVtackles
p1796
aVmwc16
p1797
aVdrawn
p1798
aVreceived
p1799
aVamused
p1800
aVshared
p1801
aVveteran
p1802
aVcelebrate
p1803
aVembrace
p1804
aVcollective
p1805
aVbenefit
p1806
aVdescribe
p1807
aVbroke
p1808
aVself-conscious
p1809
aVapproves
p1810
aVstep
p1811
aVamateurish
p1812
aVevocative
p1813
aVdrag
p1814
aVfriendly
p1815
aVawakens
p1816
aVarrive
p1817
aVpredict
p1818
aVsubversive
p1819
aVemerging
p1820
aVadmit
p1821
aVheaded
p1822
aVrewarding
p1823
aVinner
p1824
aVheading
p1825
aVsaved
p1826
aVactive
p1827
aVarmy
p1828
aVtwisted
p1829
aVfar-right
p1830
aVwears
p1831
aVdear
p1832
aVmild
p1833
aVsunday
p1834
aVnyc
p1835
aVtexas
p1836
aVmark
p1837
aVdriven
p1838
aVpublished
p1839
aVfiorina
p1840
aVgoofy
p1841
aVfunding
p1842
aVremove
p1843
aValternative
p1844
aVpatient
p1845
aVhopes
p1846
aVconstant
p1847
aVdenying
p1848
aVbrutally
p1849
aVcarly
p1850
aVearth
p1851
aVsony
p1852
aVattend
p1853
aVque
p1854
aVancient
p1855
aVexceptional
p1856
aVstraw
p1857
aVexecuted
p1858
aVrand
p1859
aVfantasy
p1860
aVanti-is
p1861
aVtrust
p1862
aVgifted
p1863
aVyounger
p1864
aVlyrical
p1865
aVterrifying
p1866
aVe3bbc
p1867
aVrent
p1868
aVthrilling
p1869
aVcareful
p1870
aVjustify
p1871
aVreplaced
p1872
aVtable
p1873
aVcbs
p1874
aVfancy
p1875
aVfastest
p1876
aVvarious
p1877
aVuninspired
p1878
aVgradually
p1879
aVimpressed
p1880
aVserial
p1881
aVdemonstrates
p1882
aVethnic
p1883
aVcrash
p1884
aVbirthday
p1885
aVmainly
p1886
aVmarried
p1887
aVclosed
p1888
aVopening
p1889
aVintroduce
p1890
aVcarried
p1891
aVstirring
p1892
aVstrike
p1893
aVabsolute
p1894
aVbusy
p1895
aVtouched
p1896
aVlibyan
p1897
aVcriticised
p1898
aVignored
p1899
aVdhs
p1900
aVease
p1901
aVtranscends
p1902
aVupgrade
p1903
aVtroubled
p1904
aVsuspects
p1905
aVinoffensive
p1906
aVdownright
p1907
aVintimate
p1908
aVrush
p1909
aVsports-themed
p1910
aVadam
p1911
aVmale
p1912
aVclosely
p1913
aVhollow
p1914
aVfire
p1915
aVnra
p1916
aVrobin
p1917
aVtriple
p1918
aVsurprised
p1919
aVstuart
p1920
aVspending
p1921
aVlink
p1922
aVcode
p1923
aVciting
p1924
aVsent
p1925
aVeve
p1926
aVfewer
p1927
aVlee
p1928
aVdefeat
p1929
aVkanye
p1930
aVcounter
p1931
aVlegendary
p1932
aVstatic
p1933
aVbay
p1934
aVhandle
p1935
aVgenerous
p1936
aVmere
p1937
aVdamaged
p1938
aVaffected
p1939
aVlifted
p1940
aVcalculated
p1941
aVunable
p1942
aVmodular
p1943
aVingenious
p1944
aVraid
p1945
aVpose
p1946
aVflash
p1947
aVdedicated
p1948
aVwrite
p1949
aVosborne
p1950
aVended
p1951
aVangel
p1952
aVexploit
p1953
aVharmless
p1954
aVimax
p1955
aVarctic
p1956
aVcreepy
p1957
aVmarginal
p1958
aVpushes
p1959
aVreject
p1960
aVwacky
p1961
aVtodd
p1962
aVduncan
p1963
aVgrew
p1964
aVpartly
p1965
aVtaiwan
p1966
aVloving
p1967
aVrequires
p1968
aVexplores
p1969
aVastonishing
p1970
aVundeniably
p1971
aVashley
p1972
aVrestore
p1973
aVextends
p1974
aVshed
p1975
aVpointless
p1976
aVhosting
p1977
aVlow-budget
p1978
aVasia
p1979
aVdr.
p1980
aVexploitative
p1981
aVsurprise
p1982
aVbalance
p1983
aVyes
p1984
aVautomatically
p1985
aVsour
p1986
aVstaying
p1987
aVsounds
p1988
aVallegedly
p1989
aVnazi
p1990
aVkevin
p1991
aVmerkel
p1992
aVobnoxious
p1993
aVharsh
p1994
aVndaa
p1995
aVexamine
p1996
aVhybrid
p1997
aVastronaut
p1998
aVnon-
p1999
aVindustrial
p2000
aVhugh
p2001
aVafter-school
p2002
aVgotten
p2003
aVdancing
p2004
aVserve
p2005
aVmeeting
p2006
aVmartial
p2007
aVlend
p2008
aVprepares
p2009
aVunfaithful
p2010
aVwriter-director
p2011
aVfinest
p2012
aVreached
p2013
aVenvironmental
p2014
aVtremendous
p2015
aVfellow
p2016
aVinjured
p2017
aVreporting
p2018
aVantonin
p2019
aVrepeated
p2020
aVflashy
p2021
aVphony
p2022
aVattract
p2023
aVdetroit
p2024
aVbanning
p2025
aVballistic
p2026
aVrandom
p2027
aVfacebook\u2019s
p2028
aVsuggest
p2029
aVdetained
p2030
aVcasting
p2031
aVdeleted
p2032
aVwireless
p2033
aVscripted
p2034
aVbegun
p2035
aVstylized
p2036
aVdiplomatic
p2037
aVreview
p2038
aVdrives
p2039
aVunconstitutional
p2040
aVpolish
p2041
aVblow
p2042
aVpoised
p2043
aVslick
p2044
aVseparate
p2045
aVincludes
p2046
aVoffline
p2047
aVqualcomm
p2048
aVgenerate
p2049
aVstale
p2050
aVdevelops
p2051
aVdramatically
p2052
aVincoherent
p2053
aVboasts
p2054
aVusa
p2055
aVbrian
p2056
aVheartbreaking
p2057
aVswift
p2058
aVunite
p2059
aVspirited
p2060
aVrocket
p2061
aVdistinctive
p2062
aVdestined
p2063
aVself-
p2064
aVthreatened
p2065
aVdanish
p2066
aVrecommended
p2067
aVnominated
p2068
aVdirecting
p2069
aVnuanced
p2070
aVgood-natured
p2071
aVheadset
p2072
aVunintentionally
p2073
aVsuck
p2074
aVsuspends
p2075
aVbits
p2076
aVdirty
p2077
aVharry
p2078
aVseemed
p2079
aVfollowed
p2080
aVmali
p2081
aVfundamental
p2082
aVcurrently
p2083
aVreduces
p2084
aVdisjointed
p2085
aVunnerving
p2086
aVcarrying
p2087
aVanimal
p2088
aVbother
p2089
aVmechanical
p2090
aVlucky
p2091
aVshiite
p2092
aVwaste
p2093
aVafghan
p2094
aVpredicts
p2095
aVrobots
p2096
aVrecognize
p2097
aVsaves
p2098
aVrelentlessly
p2099
aVofficially
p2100
aVsecure
p2101
aVspooky
p2102
aVindie
p2103
aVunderstated
p2104
aVunfocused
p2105
aVvatican
p2106
aVabstract
p2107
aVblast
p2108
aVserving
p2109
aVopened
p2110
aVmr.
p2111
aVstaged
p2112
aVnotice
p2113
aVcharismatic
p2114
aVsevere
p2115
aVverbal
p2116
aVexposes
p2117
aVarabia
p2118
aVprepare
p2119
aVheaven
p2120
aVforgive
p2121
aVexceptionally
p2122
aVstand-up
p2123
aVsweeping
p2124
aVexpecting
p2125
aVapproved
p2126
aVdescribes
p2127
aVuncompromising
p2128
aVabroad
p2129
aVcalais
p2130
aVinept
p2131
aVoverlong
p2132
aVjump
p2133
aVsoggy
p2134
aVislamist
p2135
aVdarkly
p2136
aVflorida
p2137
aVpointed
p2138
aVachieve
p2139
aVcuts
p2140
aVdems
p2141
aVimmediately
p2142
aVrefugees
p2143
aVlimit
p2144
aVteaching
p2145
aVpersonally
p2146
aVnear
p2147
aVbelly
p2148
aVmeets
p2149
aVnotorious
p2150
aVtheatrical
p2151
aVinitial
p2152
aVcovers
p2153
aVunlocking
p2154
aVdisgusting
p2155
aViraqi
p2156
aVentertained
p2157
aVhigh-tech
p2158
aVmonitor
p2159
aVmsnbc
p2160
aVcorrect
p2161
aVwi-fi
p2162
aVshocked
p2163
aVaugust
p2164
aVlogic
p2165
aVspeech
p2166
aVtrump\u2019s
p2167
aVmuddled
p2168
aVcombined
p2169
aVhugely
p2170
aVbible
p2171
aVwhimsical
p2172
aVtw2
p2173
aVabandon
p2174
aVencouraging
p2175
aVtreated
p2176
aVscattered
p2177
aVexpress
p2178
aVindividual
p2179
aVitaly
p2180
aVunveil
p2181
aVepic
p2182
aVchoppy
p2183
aViconic
p2184
aVdesign
p2185
aVupcoming
p2186
aVdaring
p2187
aVfurious
p2188
aVwholly
p2189
aVstrategic
p2190
aVsweden
p2191
aVcollateral
p2192
aVfixed
p2193
aVglorious
p2194
aVnevertheless
p2195
aVvibrant
p2196
aVtony
p2197
aVediting
p2198
aVdelightfully
p2199
aVkicked
p2200
aVjoyous
p2201
aVelizabeth
p2202
aVdemanding
p2203
aVlackluster
p2204
aVbears
p2205
aVsatellite
p2206
aVnarrow
p2207
aVensure
p2208
aVlab15
p2209
aVsecures
p2210
aVcrowdfunding
p2211
aVian
p2212
aVwide
p2213
aVconsidered
p2214
aVheartwarming
p2215
aVandrew
p2216
aVirrelevant
p2217
aVstrongly
p2218
aVlack
p2219
aVfat
p2220
aVlist
p2221
aVstick
p2222
aVstephen
p2223
aVimproved
p2224
aVthrown
p2225
aVconvinced
p2226
aVoutstanding
p2227
aVnato
p2228
aVhatred
p2229
aVquestion
p2230
aVallowing
p2231
aVcliched
p2232
aVholiday
p2233
aVmaintains
p2234
aVdeny
p2235
aVelectoral
p2236
aVheavily
p2237
aVattractive
p2238
aVcaptivating
p2239
aVsearching
p2240
aVleak
p2241
aVlean
p2242
aVchallenges
p2243
aVdemonstrate
p2244
aVunimaginative
p2245
aVuplifting
p2246
aVelaborate
p2247
aVexplained
p2248
aVcheating
p2249
aVtrending
p2250
aVspinning
p2251
aVgently
p2252
aVendure
p2253
aVcamp
p2254
aVargue
p2255
aVspin
p2256
aVcampaigning
p2257
aVmiddle-aged
p2258
aVbottom
p2259
aVfuneral
p2260
aVprefer
p2261
aVbelieved
p2262
aVinstantly
p2263
aVarriving
p2264
aVquits
p2265
aVfanciful
p2266
aVmanaging
p2267
aVenable
p2268
aVu\u2024s\u2024
p2269
aVthreatening
p2270
aVsatirical
p2271
aVaccepting
p2272
aVpeculiar
p2273
aVfrightening
p2274
aVprimarily
p2275
aVwalked
p2276
aVexisting
p2277
aVsen.
p2278
aVtrite
p2279
aVuneasy
p2280
aVslip
p2281
aVtortured
p2282
aVmeant
p2283
aVunflinching
p2284
aVindonesia
p2285
aVcount
p2286
aVgravitational
p2287
aVcompared
p2288
aVnonetheless
p2289
aVvoted
p2290
aVsuperbly
p2291
aVundercover
p2292
aVstartups
p2293
aVcomcast
p2294
aVaware
p2295
aVlay
p2296
aVsatisfied
p2297
aVjapan
p2298
aVbans
p2299
aVdelicious
p2300
aVrejected
p2301
aVponder
p2302
aVsubtly
p2303
aVedited
p2304
aVdepends
p2305
aVco-
p2306
aVcomfortable
p2307
aVaim
p2308
aVsensual
p2309
aVphotographed
p2310
aVtoys
p2311
aVaccepts
p2312
aVbattlefield
p2313
aVbalanced
p2314
aVpresented
p2315
aVplotted
p2316
aVretired
p2317
aVexpanding
p2318
aVdisguise
p2319
aVhalt
p2320
aVsignificantly
p2321
aVbullish
p2322
aVamazingly
p2323
aVthat
p2324
aVproved
p2325
aVstartling
p2326
aVnoble
p2327
aVonscreen
p2328
aVsixth
p2329
aVnative
p2330
aVboycott
p2331
aVpushed
p2332
aVmalware
p2333
aVtestify
p2334
aVearns
p2335
aVponderous
p2336
aVhands-on
p2337
aVdamn
p2338
aVmarvelous
p2339
aVbangladesh
p2340
aVproperly
p2341
aVpractically
p2342
aVmurderous
p2343
aVevokes
p2344
aVhiding
p2345
aVreflects
p2346
aVconfused
p2347
aVbet
p2348
aVdeploy
p2349
aVgross-out
p2350
aVwishing
p2351
aVkong
p2352
aVcontrolled
p2353
aVdemo
p2354
aVya-ya
p2355
aVimpeccable
p2356
aVenormously
p2357
aVbehold
p2358
aVlends
p2359
aVrichly
p2360
aVdisposable
p2361
aVweirdly
p2362
aVskype
p2363
aVaging
p2364
aVmaintain
p2365
aVinspirational
p2366
aVsavvy
p2367
aVdismiss
p2368
aVsly
p2369
aVdefeated
p2370
aVsettled
p2371
aVidentify
p2372
aVessential
p2373
aVwell-intentioned
p2374
aVhorrifying
p2375
aVround
p2376
aVcanadian
p2377
aVbreathtaking
p2378
aVsympathetic
p2379
aVacceptable
p2380
aVmap
p2381
aVcalifornia
p2382
aVanti-terror
p2383
aVparental
p2384
aVremake
p2385
aVstretched
p2386
aVsensible
p2387
aVinvestigating
p2388
aVunsentimental
p2389
aVdangerously
p2390
aVview
p2391
aVlabourleadership
p2392
aVstrikes
p2393
aVobsessed
p2394
aVstraightforward
p2395
aVexquisitely
p2396
aVclumsily
p2397
aVexquisite
p2398
aVlaughable
p2399
aVlifts
p2400
aVmasterful
p2401
aVrun-of-the-mill
p2402
aVhoped
p2403
aVintricate
p2404
aVresonant
p2405
aVassad
p2406
aVnobel
p2407
aVharrowing
p2408
aVtoshiba
p2409
aVexperienced
p2410
aVretail
p2411
aVslack
p2412
aVsparks
p2413
aVbear
p2414
aVunderwater
p2415
aVinstant
p2416
aVprotecting
p2417
aVrendered
p2418
aVhang
p2419
aVromney
p2420
aVresembles
p2421
aVsurrounding
p2422
aVplodding
p2423
aVsplendid
p2424
aVhip-hop
p2425
aVrental
p2426
aVbitcoin
p2427
aVstore
p2428
aVfinely
p2429
aVundeniable
p2430
aVfaithful
p2431
aVvietnam
p2432
aVpost-
p2433
aVtrident
p2434
aVdrown
p2435
aVstream
p2436
aVunbelievable
p2437
aVbleak
p2438
aVurge
p2439
aVfcc
p2440
aVcleared
p2441
aVhoward
p2442
aVaccepted
p2443
aVreduced
p2444
aVracist
p2445
aVcinema
p2446
aVincluded
p2447
aVthematic
p2448
aVfoxconn
p2449
aVgraham
p2450
aVsticking
p2451
aVreflect
p2452
aVseptember
p2453
aVargentina
p2454
aVweighs
p2455
aVguess
p2456
aVfeed
p2457
aVbland
p2458
aVtougher
p2459
aVmeasured
p2460
aVproblematic
p2461
aVarrived
p2462
aVanne
p2463
aVandy
p2464
aVhome
p2465
aVleaden
p2466
aVsuffers
p2467
aVimprobable
p2468
aVfeature-length
p2469
aVunpredictable
p2470
aVadditional
p2471
aVorganic
p2472
aVbiting
p2473
aVpotent
p2474
aVacquired
p2475
aVapril
p2476
aVlightweight
p2477
aVunity
p2478
aVunprecedented
p2479
aVyellow
p2480
aVhanging
p2481
aVinevitable
p2482
aVwickedly
p2483
aVremotely
p2484
aVeuro
p2485
aVpositively
p2486
aVshowed
p2487
aVboston
p2488
aVlaughing
p2489
aVrespond
p2490
aVacquire
p2491
aVunabashedly
p2492
aVdrowned
p2493
aVreducing
p2494
aVproud
p2495
aVrousing
p2496
aVbogus
p2497
aVteam
p2498
aVfunded
p2499
aVbloody
p2500
aVopposed
p2501
aVstole
p2502
aVsudden
p2503
aVoptimal
p2504
aVresonate
p2505
aVdepressed
p2506
aVaggressive
p2507
aVimagined
p2508
aVsites
p2509
aVspark
p2510
aVendlessly
p2511
aVdubious
p2512
aVrecycled
p2513
aVdivine
p2514
aVscientific
p2515
aVtechnically
p2516
aVhandsome
p2517
aVrichard
p2518
aVrefuse
p2519
aVleigh
p2520
aVqualify
p2521
aVjeb
p2522
aVinternal
p2523
aVwrites
p2524
aVwell-crafted
p2525
aVdelicately
p2526
aVfirm
p2527
aVexpanded
p2528
aVswim
p2529
aVdon
p2530
aVenjoyably
p2531
aVeducational
p2532
aVunoriginal
p2533
aVchosen
p2534
aVcaucuses
p2535
aVscare
p2536
aVblown
p2537
aVfestival
p2538
aVambiguous
p2539
aVairbnb
p2540
aVtonight
p2541
aVvisa
p2542
aVohio
p2543
aVnationwide
p2544
aVinvites
p2545
aVoptimistic
p2546
aVdrawing
p2547
aVincreased
p2548
aVfiscal
p2549
aVconvince
p2550
aVunforced
p2551
aVsimultaneously
p2552
aVaward
p2553
aVsobering
p2554
aVrefusing
p2555
aVlas
p2556
aVelusive
p2557
aVclassified
p2558
aValternately
p2559
aVtops
p2560
aVantarctic
p2561
aVhappily
p2562
aVbuilt-in
p2563
aVforces
p2564
aVstilted
p2565
aVhaunted
p2566
aVwider
p2567
aVperform
p2568
aVnorwegian
p2569
aVblamed
p2570
aVrequiring
p2571
aVlashes
p2572
aVmarketing
p2573
aVwhat\u2019s
p2574
aVscored
p2575
aVregret
p2576
aVsatisfy
p2577
aVubisoft
p2578
aVoffend
p2579
aVhampered
p2580
aVcloying
p2581
aVchallenged
p2582
aVshown
p2583
aVblind
p2584
aVcarson
p2585
aVexpertly
p2586
aVstruck
p2587
aVsnapchat
p2588
aVcuriously
p2589
aVdreadful
p2590
aVapologizes
p2591
aVstylistic
p2592
aVsentenced
p2593
aVlie
p2594
aVu.s
p2595
aVshowcases
p2596
aVunderlying
p2597
aVgenre
p2598
aVpack
p2599
aVreviewed
p2600
aVacquiring
p2601
aVdefies
p2602
aVshine
p2603
aVfaith
p2604
aVfilms
p2605
aVqueen
p2606
aVvolatile
p2607
aVbiblical
p2608
aVappointed
p2609
aVescaped
p2610
aVpulling
p2611
aVserviceable
p2612
aVxiaomi
p2613
aVemails
p2614
aVhands
p2615
aVslide
p2616
aVhostile
p2617
aVaustin
p2618
aVprecisely
p2619
aVfuzzy
p2620
aVoverwhelming
p2621
aVslows
p2622
aVsupernatural
p2623
aVscorsese
p2624
aVdefinitive
p2625
aVrespectable
p2626
aVpreviously
p2627
aVcruel
p2628
aVastounding
p2629
aVaffect
p2630
aVcalm
p2631
aVexpose
p2632
aVberlin
p2633
aVsomber
p2634
aVlaughs
p2635
aVanswer
p2636
aVlifeless
p2637
aVimmensely
p2638
aVmasterfully
p2639
aVpsychologically
p2640
aVscrap
p2641
aVerdogan
p2642
aVthrew
p2643
aVgrown
p2644
aVkim
p2645
aVintermittently
p2646
aVsticky
p2647
aVforecast
p2648
aVmarks
p2649
aVinconsequential
p2650
aVboy
p2651
aVshift
p2652
aVcapturing
p2653
aVdrags
p2654
aVtale
p2655
aVrock
p2656
aVdominate
p2657
aVfleeing
p2658
aVundoubtedly
p2659
aVsuited
p2660
aVfills
p2661
aVdick
p2662
aVshopping
p2663
aVpat
p2664
aVgross
p2665
aVgod
p2666
aVwrapped
p2667
aVembraces
p2668
aVdong
p2669
aVconvoluted
p2670
aVholocaust
p2671
aVtaxi
p2672
aVstrongest
p2673
aVscale
p2674
aVresolutely
p2675
aVcurb
p2676
aVellen
p2677
aVhuawei
p2678
aVhonor
p2679
aVsupposedly
p2680
aVashamed
p2681
aVmatt
p2682
aVabsurd
p2683
aVsupported
p2684
aVwhistleblower
p2685
aVatlantic
p2686
aVrelevant
p2687
aVupbeat
p2688
aVslammed
p2689
aVexceedingly
p2690
aVconvey
p2691
aVsmartly
p2692
aVintroduces
p2693
aVclaiming
p2694
aVtweet
p2695
aVmessy
p2696
aVharriet
p2697
aValphabet
p2698
aVfilling
p2699
aVnewly
p2700
aVfred
p2701
aVfrantic
p2702
aVportable
p2703
aVclunky
p2704
aVabc
p2705
aVannounce
p2706
aVocean
p2707
aVlaptop
p2708
aVthick
p2709
aVrely
p2710
aVvive
p2711
aVsling
p2712
aVcleric
p2713
aVuncovered
p2714
aVrow
p2715
aVhealthy
p2716
aVhandled
p2717
aVperformed
p2718
aVcatching
p2719
aVoverblown
p2720
aVreturns
p2721
aVregarding
p2722
aVunusually
p2723
aVarnold
p2724
aVdevoid
p2725
aV'the
p2726
aVshamelessly
p2727
aVnovel
p2728
aVnbc
p2729
aVracing
p2730
aVthankfully
p2731
aVsuddenly
p2732
aVimplausible
p2733
aVartful
p2734
aVcolombia
p2735
aVstorm
p2736
aVpedestrian
p2737
aVcleverly
p2738
aVbolster
p2739
aVrip
p2740
aVmunich
p2741
aVedge
p2742
aVfiles
p2743
aVaudacious
p2744
aVrepeatedly
p2745
aVdragged
p2746
aVpushing
p2747
aVnervous
p2748
aVbuoyant
p2749
aVdoubled
p2750
aVsupports
p2751
aVecho
p2752
aVricher
p2753
aVagreed
p2754
aVpurely
p2755
aVwry
p2756
aVfuturistic
p2757
aVunconvincing
p2758
aVhe\u2019s
p2759
aVcross
p2760
aVrapid
p2761
aVfacial
p2762
aVjames
p2763
aVscared
p2764
aVswept
p2765
aVmargaret
p2766
aVspoke
p2767
aVholy
p2768
aVhurt
p2769
aVnonsensical
p2770
aVwing
p2771
aVexposing
p2772
aVnigel
p2773
aVgeneva
p2774
aVcausing
p2775
aVdeadpan
p2776
aVwikipedia
p2777
aVscore
p2778
aVmodern-day
p2779
aVdiverted
p2780
aVflooding
p2781
aVeffortlessly
p2782
aVtwitter\u2019s
p2783
aVremind
p2784
aVwrap
p2785
aVconcealed
p2786
aVeverywhere
p2787
aVexaggerated
p2788
aVdivided
p2789
aVdata
p2790
aVearly-
p2791
aVconveying
p2792
aVformula
p2793
aVtraining
p2794
aVdisguised
p2795
aVspoken
p2796
aVripping
p2797
aVstructured
p2798
aVsam
p2799
aVburundi
p2800
aVrevelatory
p2801
aVrooting
p2802
aVsingapore
p2803
aVcosts
p2804
aVpitch
p2805
aVintel
p2806
aVdestroys
p2807
aVburning
p2808
aVforgot
p2809
aVtricky
p2810
aVcauses
p2811
aVlaying
p2812
aVscramble
p2813
aVimminent
p2814
aVshipped
p2815
aVmapping
p2816
aVreminded
p2817
aVtrade
p2818
aVexistential
p2819
aVrecruiting
p2820
aVuncomfortably
p2821
aVrelies
p2822
aVelling
p2823
aVshake-up
p2824
aVattacking
p2825
aVimproves
p2826
aVpressed
p2827
aValeppo
p2828
aVeager
p2829
aVsuffering
p2830
aVirresistible
p2831
aVdeserved
p2832
aVspecifically
p2833
aVbroader
p2834
aVmonotonous
p2835
aVdive
p2836
aVstreamed
p2837
aVninth
p2838
aVuniformly
p2839
aVinsists
p2840
aVnears
p2841
aVdestroying
p2842
aVtied
p2843
aVfits
p2844
aVredundant
p2845
aVsnake
p2846
aVenigmatic
p2847
aVchilly
p2848
aVblows
p2849
aVbuoyed
p2850
aVbackdoor
p2851
aVelite
p2852
aVdefending
p2853
aVinsight
p2854
aVinsulting
p2855
aVripe
p2856
aVregistered
p2857
aVexhausting
p2858
aVcombine
p2859
aVgaining
p2860
aVsnappy
p2861
aVtroubling
p2862
aVnewtown
p2863
aVwitness
p2864
aVmonday
p2865
aVrule
p2866
aVoldest
p2867
aVestablished
p2868
aVsmoochy
p2869
aVunsatisfying
p2870
aVlab
p2871
aValtogether
p2872
aVhosted
p2873
aVdisputed
p2874
aVmean-spirited
p2875
aVdidactic
p2876
aVaid
p2877
aVavoids
p2878
aVbeating
p2879
aVclinical
p2880
aVincisive
p2881
aVgather
p2882
aVcorbyn
p2883
aVeu-us
p2884
aVaggressively
p2885
aVsending
p2886
aVangela
p2887
aVdisappointingly
p2888
aVfirst-rate
p2889
aVreceiving
p2890
aVerotic
p2891
aVappreciated
p2892
aVsusan
p2893
aVslap
p2894
aVfifty
p2895
aVfifth
p2896
aVscreenwriting
p2897
aVinformed
p2898
aVswallow
p2899
aVmentally
p2900
aVeddie
p2901
aVboldly
p2902
aVstark
p2903
aVforcing
p2904
aVwell-meaning
p2905
aV21st
p2906
aVdepend
p2907
aVtranscend
p2908
aVanticipated
p2909
aVreferred
p2910
aVpublish
p2911
aVdominated
p2912
aVdire
p2913
aVill-conceived
p2914
aVbelongs
p2915
aVlib
p2916
aVuseless
p2917
aVoptical
p2918
aVlovingly
p2919
aVdescribed
p2920
aVwet
p2921
aVgovernor
p2922
aVguide
p2923
aVremaining
p2924
aVspike
p2925
aVdraw
p2926
aVu-turn
p2927
aVwaking
p2928
aVopaque
p2929
aVrotten
p2930
aVmelancholy
p2931
aVcopyright
p2932
aVaddresses
p2933
aVsinging
p2934
aVcrossed
p2935
aVhalloween
p2936
aVlongest
p2937
aVlet\u2019s
p2938
aVshaking
p2939
aVsecretly
p2940
aVscrew
p2941
aVupset
p2942
aVmichigan
p2943
aVthank
p2944
aVtreat
p2945
aVowns
p2946
aVexamines
p2947
aVbegan
p2948
aVdistant
p2949
aVprominent
p2950
aVexploiting
p2951
aVdidi
p2952
aVfrancisco
p2953
aVimperial
p2954
aVdynamic
p2955
aVswap
p2956
aVrescue
p2957
aVevolving
p2958
aVsnowden
p2959
aVwary
p2960
aVroot
p2961
aVinvolve
p2962
aVunforgettable
p2963
aVstruggle
p2964
aViss
p2965
aVbionic
p2966
aValfred
p2967
aVregular
p2968
aVdog
p2969
aVnevada
p2970
aVdecides
p2971
aVglossy
p2972
aVmeaningful
p2973
aVloaded
p2974
aVneat
p2975
aVdelight
p2976
aVunfair
p2977
aVdegree
p2978
aVcollect
p2979
aVburn
p2980
aVlied
p2981
aVdelete
p2982
aVhprimary
p2983
aVhanded
p2984
aVelegantly
p2985
aVwe\u2019re
p2986
aVdestructive
p2987
aVlaugh-out-loud
p2988
aVsoulful
p2989
aVexotic
p2990
aVprotected
p2991
aVcomedian
p2992
aVefficient
p2993
aVswitching
p2994
aVchannel
p2995
aVnormal
p2996
aVdoesn\u2019t
p2997
aVisn\u2019t
p2998
aVtour
p2999
aVudeal
p3000
a.